
my.elf:     file format elf64-littleriscv


Disassembly of section .text:

0000000000000000 <sort>:
   0:	fd010113          	addi	sp,sp,-48
   4:	02813423          	sd	s0,40(sp)
   8:	03010413          	addi	s0,sp,48
   c:	fca43c23          	sd	a0,-40(s0)
  10:	00058793          	mv	a5,a1
  14:	fcf42a23          	sw	a5,-44(s0)
  18:	fd442783          	lw	a5,-44(s0)
  1c:	fff7879b          	addiw	a5,a5,-1
  20:	fef42623          	sw	a5,-20(s0)
  24:	0cc0006f          	j	f0 <sort+0xf0>
  28:	fe042423          	sw	zero,-24(s0)
  2c:	0a40006f          	j	d0 <sort+0xd0>
  30:	fe842783          	lw	a5,-24(s0)
  34:	00279793          	slli	a5,a5,0x2
  38:	fd843703          	ld	a4,-40(s0)
  3c:	00f707b3          	add	a5,a4,a5
  40:	0007a683          	lw	a3,0(a5)
  44:	fe842783          	lw	a5,-24(s0)
  48:	00178793          	addi	a5,a5,1
  4c:	00279793          	slli	a5,a5,0x2
  50:	fd843703          	ld	a4,-40(s0)
  54:	00f707b3          	add	a5,a4,a5
  58:	0007a783          	lw	a5,0(a5)
  5c:	00068713          	mv	a4,a3
  60:	06e7d263          	bge	a5,a4,c4 <sort+0xc4>
  64:	fe842783          	lw	a5,-24(s0)
  68:	00279793          	slli	a5,a5,0x2
  6c:	fd843703          	ld	a4,-40(s0)
  70:	00f707b3          	add	a5,a4,a5
  74:	0007a783          	lw	a5,0(a5)
  78:	fef42223          	sw	a5,-28(s0)
  7c:	fe842783          	lw	a5,-24(s0)
  80:	00178793          	addi	a5,a5,1
  84:	00279793          	slli	a5,a5,0x2
  88:	fd843703          	ld	a4,-40(s0)
  8c:	00f70733          	add	a4,a4,a5
  90:	fe842783          	lw	a5,-24(s0)
  94:	00279793          	slli	a5,a5,0x2
  98:	fd843683          	ld	a3,-40(s0)
  9c:	00f687b3          	add	a5,a3,a5
  a0:	00072703          	lw	a4,0(a4)
  a4:	00e7a023          	sw	a4,0(a5)
  a8:	fe842783          	lw	a5,-24(s0)
  ac:	00178793          	addi	a5,a5,1
  b0:	00279793          	slli	a5,a5,0x2
  b4:	fd843703          	ld	a4,-40(s0)
  b8:	00f707b3          	add	a5,a4,a5
  bc:	fe442703          	lw	a4,-28(s0)
  c0:	00e7a023          	sw	a4,0(a5)
  c4:	fe842783          	lw	a5,-24(s0)
  c8:	0017879b          	addiw	a5,a5,1
  cc:	fef42423          	sw	a5,-24(s0)
  d0:	fe842703          	lw	a4,-24(s0)
  d4:	fec42783          	lw	a5,-20(s0)
  d8:	0007071b          	sext.w	a4,a4
  dc:	0007879b          	sext.w	a5,a5
  e0:	f4f748e3          	blt	a4,a5,30 <sort+0x30>
  e4:	fec42783          	lw	a5,-20(s0)
  e8:	fff7879b          	addiw	a5,a5,-1
  ec:	fef42623          	sw	a5,-20(s0)
  f0:	fec42783          	lw	a5,-20(s0)
  f4:	0007879b          	sext.w	a5,a5
  f8:	f2f048e3          	bgtz	a5,28 <sort+0x28>
  fc:	00000013          	nop
 100:	00000013          	nop
 104:	02813403          	ld	s0,40(sp)
 108:	03010113          	addi	sp,sp,48
 10c:	00008067          	ret

0000000000000110 <_start>:
 110:	ff010113          	addi	sp,sp,-16
 114:	00113423          	sd	ra,8(sp)
 118:	00813023          	sd	s0,0(sp)
 11c:	01010413          	addi	s0,sp,16
 120:	00500593          	li	a1,5
 124:	14000513          	li	a0,320
 128:	ed9ff0ef          	jal	ra,0 <sort>
 12c:	00000013          	nop
 130:	00813083          	ld	ra,8(sp)
 134:	00013403          	ld	s0,0(sp)
 138:	01010113          	addi	sp,sp,16
 13c:	00008067          	ret

Disassembly of section .data:

0000000000000140 <arr>:
 140:	0005                	c.nop	1
 142:	0000                	unimp
 144:	0004                	0x4
 146:	0000                	unimp
 148:	00000003          	lb	zero,0(zero) # 0 <sort>
 14c:	0002                	c.slli64	zero
 14e:	0000                	unimp
 150:	0001                	nop
	...

Disassembly of section .debug_info:

0000000000000000 <.debug_info>:
   0:	0118                	addi	a4,sp,128
   2:	0000                	unimp
   4:	0004                	0x4
   6:	0000                	unimp
   8:	0000                	unimp
   a:	0108                	addi	a0,sp,128
   c:	0000004f          	fnmadd.s	ft0,ft0,ft0,ft0,rne
  10:	190c                	addi	a1,sp,176
  12:	0000                	unimp
  14:	1e00                	addi	s0,sp,816
	...
  1e:	0000                	unimp
  20:	4000                	lw	s0,0(s0)
  22:	0001                	nop
	...
  2c:	0200                	addi	s0,sp,256
  2e:	0044                	addi	s1,sp,4
  30:	0000                	unimp
  32:	003d                	c.nop	15
  34:	0000                	unimp
  36:	00003d03          	ld	s10,0(zero) # 0 <sort>
  3a:	0400                	addi	s0,sp,512
  3c:	0400                	addi	s0,sp,512
  3e:	0708                	addi	a0,sp,896
  40:	00000007          	0x7
  44:	0405                	addi	s0,s0,1
  46:	6905                	lui	s2,0x1
  48:	746e                	ld	s0,248(sp)
  4a:	0600                	addi	s0,sp,768
  4c:	7261                	lui	tp,0xffff8
  4e:	0072                	c.slli	zero,0x1c
  50:	0201                	addi	tp,tp,0
  52:	2d05                	addiw	s10,s10,1
  54:	0000                	unimp
  56:	0900                	addi	s0,sp,144
  58:	00014003          	lbu	zero,0(sp)
  5c:	0000                	unimp
  5e:	0000                	unimp
  60:	0700                	addi	s0,sp,896
  62:	0000                	unimp
  64:	0000                	unimp
  66:	1101                	addi	sp,sp,-32
  68:	1006                	c.slli	zero,0x21
  6a:	0001                	nop
  6c:	0000                	unimp
  6e:	0000                	unimp
  70:	3000                	fld	fs0,32(s0)
  72:	0000                	unimp
  74:	0000                	unimp
  76:	0000                	unimp
  78:	0100                	addi	s0,sp,128
  7a:	089c                	addi	a5,sp,80
  7c:	0045                	c.nop	17
  7e:	0000                	unimp
  80:	0401                	addi	s0,s0,0
  82:	0006                	c.slli	zero,0x1
  84:	0000                	unimp
  86:	0000                	unimp
  88:	0000                	unimp
  8a:	1000                	addi	s0,sp,32
  8c:	0001                	nop
  8e:	0000                	unimp
  90:	0000                	unimp
  92:	0100                	addi	s0,sp,128
  94:	159c                	addi	a5,sp,736
  96:	0001                	nop
  98:	0900                	addi	s0,sp,144
  9a:	7261                	lui	tp,0xffff8
  9c:	0072                	c.slli	zero,0x1c
  9e:	0401                	addi	s0,s0,0
  a0:	0001150f          	0x1150f
  a4:	0200                	addi	s0,sp,256
  a6:	5891                	li	a7,-28
  a8:	6e09                	lui	t3,0x2
  aa:	0100                	addi	s0,sp,128
  ac:	1a04                	addi	s1,sp,304
  ae:	0044                	addi	s1,sp,4
  b0:	0000                	unimp
  b2:	9102                	jalr	sp
  b4:	0a54                	addi	a3,sp,276
  b6:	0018                	0x18
  b8:	0000                	unimp
  ba:	0000                	unimp
  bc:	0000                	unimp
  be:	00e4                	addi	s1,sp,76
  c0:	0000                	unimp
  c2:	0000                	unimp
  c4:	0000                	unimp
  c6:	0100690b          	0x100690b
  ca:	0d05                	addi	s10,s10,1
  cc:	0044                	addi	s1,sp,4
  ce:	0000                	unimp
  d0:	9102                	jalr	sp
  d2:	0a6c                	addi	a1,sp,284
  d4:	0028                	addi	a0,sp,8
  d6:	0000                	unimp
  d8:	0000                	unimp
  da:	0000                	unimp
  dc:	00bc                	addi	a5,sp,72
  de:	0000                	unimp
  e0:	0000                	unimp
  e2:	0000                	unimp
  e4:	01006a0b          	0x1006a0b
  e8:	1106                	slli	sp,sp,0x21
  ea:	0044                	addi	s1,sp,4
  ec:	0000                	unimp
  ee:	9102                	jalr	sp
  f0:	0a68                	addi	a0,sp,284
  f2:	0064                	addi	s1,sp,12
  f4:	0000                	unimp
  f6:	0000                	unimp
  f8:	0000                	unimp
  fa:	0060                	addi	s0,sp,12
  fc:	0000                	unimp
  fe:	0000                	unimp
 100:	0000                	unimp
 102:	4a0c                	lw	a1,16(a2)
 104:	0000                	unimp
 106:	0100                	addi	s0,sp,128
 108:	1508                	addi	a0,sp,672
 10a:	0044                	addi	s1,sp,4
 10c:	0000                	unimp
 10e:	9102                	jalr	sp
 110:	0064                	addi	s1,sp,12
 112:	0000                	unimp
 114:	0d00                	addi	s0,sp,656
 116:	4408                	lw	a0,8(s0)
 118:	0000                	unimp
	...

Disassembly of section .debug_abbrev:

0000000000000000 <.debug_abbrev>:
   0:	1101                	addi	sp,sp,-32
   2:	2501                	sext.w	a0,a0
   4:	130e                	slli	t1,t1,0x23
   6:	1b0e030b          	0x1b0e030b
   a:	110e                	slli	sp,sp,0x23
   c:	1201                	addi	tp,tp,-32
   e:	00171007          	0x171007
  12:	0200                	addi	s0,sp,256
  14:	0101                	addi	sp,sp,0
  16:	1349                	addi	t1,t1,-14
  18:	1301                	addi	t1,t1,-32
  1a:	0000                	unimp
  1c:	49002103          	lw	sp,1168(zero) # 490 <arr+0x350>
  20:	000b2f13          	slti	t5,s6,0
  24:	0400                	addi	s0,sp,512
  26:	0024                	addi	s1,sp,8
  28:	0b3e0b0b          	0xb3e0b0b
  2c:	00000e03          	lb	t3,0(zero) # 0 <sort>
  30:	2405                	addiw	s0,s0,1
  32:	0b00                	addi	s0,sp,400
  34:	030b3e0b          	0x30b3e0b
  38:	0008                	0x8
  3a:	0600                	addi	s0,sp,768
  3c:	0034                	addi	a3,sp,8
  3e:	0b3a0803          	lb	a6,179(s4)
  42:	0b390b3b          	0xb390b3b
  46:	1349                	addi	t1,t1,-14
  48:	1802193f 2e070000 	0x2e0700001802193f
  50:	3f00                	fld	fs0,56(a4)
  52:	0319                	addi	t1,t1,6
  54:	3a0e                	fld	fs4,224(sp)
  56:	390b3b0b          	0x390b3b0b
  5a:	1201110b          	0x1201110b
  5e:	96184007          	flq	ft0,-1695(a6)
  62:	1942                	slli	s2,s2,0x30
  64:	0000                	unimp
  66:	2e08                	fld	fa0,24(a2)
  68:	3f01                	addiw	t5,t5,-32
  6a:	0319                	addi	t1,t1,6
  6c:	3a0e                	fld	fs4,224(sp)
  6e:	390b3b0b          	0x390b3b0b
  72:	1119270b          	0x1119270b
  76:	1201                	addi	tp,tp,-32
  78:	97184007          	flq	ft0,-1679(a6)
  7c:	1942                	slli	s2,s2,0x30
  7e:	1301                	addi	t1,t1,-32
  80:	0000                	unimp
  82:	0509                	addi	a0,a0,2
  84:	0300                	addi	s0,sp,384
  86:	3a08                	fld	fa0,48(a2)
  88:	390b3b0b          	0x390b3b0b
  8c:	0213490b          	0x213490b
  90:	0018                	0x18
  92:	0a00                	addi	s0,sp,272
  94:	0111010b          	0x111010b
  98:	0712                	slli	a4,a4,0x4
  9a:	0000                	unimp
  9c:	0300340b          	0x300340b
  a0:	3a08                	fld	fa0,48(a2)
  a2:	390b3b0b          	0x390b3b0b
  a6:	0213490b          	0x213490b
  aa:	0018                	0x18
  ac:	0c00                	addi	s0,sp,528
  ae:	0034                	addi	a3,sp,8
  b0:	0b3a0e03          	lb	t3,179(s4)
  b4:	0b390b3b          	0xb390b3b
  b8:	1349                	addi	t1,t1,-14
  ba:	1802                	slli	a6,a6,0x20
  bc:	0000                	unimp
  be:	0f0d                	addi	t5,t5,3
  c0:	0b00                	addi	s0,sp,400
  c2:	0013490b          	0x13490b
	...

Disassembly of section .debug_aranges:

0000000000000000 <.debug_aranges>:
   0:	002c                	addi	a1,sp,8
   2:	0000                	unimp
   4:	0002                	c.slli64	zero
   6:	0000                	unimp
   8:	0000                	unimp
   a:	0008                	0x8
	...
  18:	0140                	addi	s0,sp,132
	...

Disassembly of section .debug_line:

0000000000000000 <.debug_line>:
   0:	00fd                	addi	ra,ra,31
   2:	0000                	unimp
   4:	001b0003          	lb	zero,1(s6)
   8:	0000                	unimp
   a:	0101                	addi	sp,sp,0
   c:	000d0efb          	0xd0efb
  10:	0101                	addi	sp,sp,0
  12:	0101                	addi	sp,sp,0
  14:	0000                	unimp
  16:	0100                	addi	s0,sp,128
  18:	0000                	unimp
  1a:	0001                	nop
  1c:	796d                	lui	s2,0xffffb
  1e:	632e                	ld	t1,200(sp)
  20:	0000                	unimp
  22:	0000                	unimp
  24:	0500                	addi	s0,sp,640
  26:	001d                	c.nop	7
  28:	0209                	addi	tp,tp,2
	...
  32:	0515                	addi	a0,a0,5
  34:	030d                	addi	t1,t1,3
  36:	0901                	addi	s2,s2,0
  38:	0018                	0x18
  3a:	0501                	addi	a0,a0,0
  3c:	0305                	addi	t1,t1,1
  3e:	0900                	addi	s0,sp,144
  40:	000c                	0xc
  42:	0501                	addi	a0,a0,0
  44:	0311                	addi	t1,t1,4
  46:	0901                	addi	s2,s2,0
  48:	0004                	0x4
  4a:	0501                	addi	a0,a0,0
  4c:	0309                	addi	t1,t1,2
  4e:	0900                	addi	s0,sp,144
  50:	0004                	0x4
  52:	0501                	addi	a0,a0,0
  54:	09010313          	addi	t1,sp,144
  58:	0004                	0x4
  5a:	0501                	addi	a0,a0,0
  5c:	031c                	addi	a5,sp,384
  5e:	0900                	addi	s0,sp,144
  60:	0014                	0x14
  62:	0501                	addi	a0,a0,0
  64:	0900030f          	0x900030f
  68:	0018                	0x18
  6a:	0501                	addi	a0,a0,0
  6c:	031f 0901 0008      	0x80901031f
  72:	0501                	addi	a0,a0,0
  74:	0315                	addi	t1,t1,5
  76:	0900                	addi	s0,sp,144
  78:	0010                	0x10
  7a:	0501                	addi	a0,a0,0
  7c:	031d                	addi	t1,t1,7
  7e:	0901                	addi	s2,s2,0
  80:	0008                	0x8
  82:	0501                	addi	a0,a0,0
  84:	0314                	addi	a3,sp,384
  86:	0900                	addi	s0,sp,144
  88:	0014                	0x14
  8a:	0501                	addi	a0,a0,0
  8c:	031d                	addi	t1,t1,7
  8e:	0900                	addi	s0,sp,144
  90:	0010                	0x10
  92:	0501                	addi	a0,a0,0
  94:	0318                	addi	a4,sp,384
  96:	0900                	addi	s0,sp,144
  98:	0004                	0x4
  9a:	0501                	addi	a0,a0,0
  9c:	0314                	addi	a3,sp,384
  9e:	0901                	addi	s2,s2,0
  a0:	0004                	0x4
  a2:	0501                	addi	a0,a0,0
  a4:	031a                	slli	t1,t1,0x6
  a6:	0900                	addi	s0,sp,144
  a8:	0014                	0x14
  aa:	0501                	addi	a0,a0,0
  ac:	0020                	addi	s0,sp,8
  ae:	0402                	c.slli64	s0
  b0:	0302                	c.slli64	t1
  b2:	097c                	addi	a5,sp,156
  b4:	0008                	0x8
  b6:	0501                	addi	a0,a0,0
  b8:	0009                	c.nop	2
  ba:	0402                	c.slli64	s0
  bc:	0301                	addi	t1,t1,0
  be:	0900                	addi	s0,sp,144
  c0:	000c                	0xc
  c2:	0501                	addi	a0,a0,0
  c4:	001e                	c.slli	zero,0x7
  c6:	0402                	c.slli64	s0
  c8:	0302                	c.slli64	t1
  ca:	097f                	0x97f
  cc:	0014                	0x14
  ce:	0501                	addi	a0,a0,0
  d0:	0005                	c.nop	1
  d2:	0402                	c.slli64	s0
  d4:	0301                	addi	t1,t1,0
  d6:	0900                	addi	s0,sp,144
  d8:	000c                	0xc
  da:	0501                	addi	a0,a0,0
  dc:	0301                	addi	t1,t1,0
  de:	0909                	addi	s2,s2,2
  e0:	000c                	0xc
  e2:	0501                	addi	a0,a0,0
  e4:	0903030f          	0x903030f
  e8:	0014                	0x14
  ea:	0501                	addi	a0,a0,0
  ec:	0305                	addi	t1,t1,1
  ee:	0901                	addi	s2,s2,0
  f0:	0010                	0x10
  f2:	0501                	addi	a0,a0,0
  f4:	0301                	addi	t1,t1,0
  f6:	0901                	addi	s2,s2,0
  f8:	000c                	0xc
  fa:	0901                	addi	s2,s2,0
  fc:	0014                	0x14
  fe:	0100                	addi	s0,sp,128
 100:	01              	Address 0x0000000000000100 is out of bounds.


Disassembly of section .debug_str:

0000000000000000 <.debug_str>:
   0:	735f 6174 7472      	0x74726174735f
   6:	6c00                	ld	s0,24(s0)
   8:	20676e6f          	jal	t3,7620e <arr+0x760ce>
   c:	6e75                	lui	t3,0x1d
   e:	6e676973          	csrrsi	s2,0x6e6,14
  12:	6465                	lui	s0,0x19
  14:	6920                	ld	s0,80(a0)
  16:	746e                	ld	s0,248(sp)
  18:	6d00                	ld	s0,24(a0)
  1a:	2e79                	addiw	t3,t3,30
  1c:	682f0063          	beq	t5,sp,69c <arr+0x55c>
  20:	2f656d6f          	jal	s10,56316 <arr+0x561d6>
  24:	6978                	ld	a4,208(a0)
  26:	2f61                	addiw	t5,t5,24
  28:	6544                	ld	s1,136(a0)
  2a:	6f746b73          	csrrsi	s6,0x6f7,8
  2e:	2f70                	fld	fa2,216(a4)
  30:	5f757063          	bgeu	a0,s7,610 <arr+0x4d0>
  34:	6564                	ld	s1,200(a0)
  36:	6e676973          	csrrsi	s2,0x6e6,14
  3a:	7069702f          	0x7069702f
  3e:	2f65                	addiw	t5,t5,25
  40:	6574                	ld	a3,200(a0)
  42:	73007473          	csrrci	s0,0x730,0
  46:	0074726f          	jal	tp,4784c <arr+0x4770c>
  4a:	6574                	ld	a3,200(a0)
  4c:	706d                	c.lui	zero,0xffffb
  4e:	4700                	lw	s0,8(a4)
  50:	554e                	lw	a0,240(sp)
  52:	4320                	lw	s0,64(a4)
  54:	3731                	addiw	a4,a4,-20
  56:	3920                	fld	fs0,112(a0)
  58:	332e                	fld	ft6,232(sp)
  5a:	302e                	fld	ft0,232(sp)
  5c:	2d20                	fld	fs0,88(a0)
  5e:	616d                	addi	sp,sp,240
  60:	6372                	ld	t1,280(sp)
  62:	3d68                	fld	fa0,248(a0)
  64:	7672                	ld	a2,312(sp)
  66:	3436                	fld	fs0,360(sp)
  68:	2069                	0x2069
  6a:	6d2d                	lui	s10,0xb
  6c:	6261                	lui	tp,0x18
  6e:	3d69                	addiw	s10,s10,-6
  70:	706c                	ld	a1,224(s0)
  72:	3436                	fld	fs0,360(sp)
  74:	2d20                	fld	fs0,88(a0)
  76:	          	jr	zero # 0 <sort>

Disassembly of section .comment:

0000000000000000 <.comment>:
   0:	3a434347          	fmsub.d	ft6,ft6,ft4,ft7,rmm
   4:	2820                	fld	fs0,80(s0)
   6:	2029                	0x2029
   8:	2e39                	addiw	t3,t3,14
   a:	00302e33          	sgtz	t3,gp

Disassembly of section .riscv.attributes:

0000000000000000 <.riscv.attributes>:
   0:	1b41                	addi	s6,s6,-16
   2:	0000                	unimp
   4:	7200                	ld	s0,32(a2)
   6:	7369                	lui	t1,0xffffa
   8:	01007663          	bgeu	zero,a6,14 <sort+0x14>
   c:	0011                	c.nop	4
   e:	0000                	unimp
  10:	1004                	addi	s1,sp,32
  12:	7205                	lui	tp,0xfffe1
  14:	3676                	fld	fa2,376(sp)
  16:	6934                	ld	a3,80(a0)
  18:	7032                	0x7032
  1a:	0030                	addi	a2,sp,8

Disassembly of section .debug_frame:

0000000000000000 <.debug_frame>:
   0:	000c                	0xc
   2:	0000                	unimp
   4:	ffff                	0xffff
   6:	ffff                	0xffff
   8:	7c010003          	lb	zero,1984(sp)
   c:	0d01                	addi	s10,s10,0
   e:	0002                	c.slli64	zero
  10:	002c                	addi	a1,sp,8
	...
  1e:	0000                	unimp
  20:	0110                	addi	a2,sp,128
  22:	0000                	unimp
  24:	0000                	unimp
  26:	0000                	unimp
  28:	0e44                	addi	s1,sp,788
  2a:	4430                	lw	a2,72(s0)
  2c:	0288                	addi	a0,sp,320
  2e:	0c44                	addi	s1,sp,532
  30:	0008                	0x8
  32:	fc02                	sd	zero,56(sp)
  34:	0cc8                	addi	a0,sp,596
  36:	3002                	fld	ft0,32(sp)
  38:	0e44                	addi	s1,sp,788
  3a:	0000                	unimp
  3c:	0000                	unimp
  3e:	0000                	unimp
  40:	002c                	addi	a1,sp,8
  42:	0000                	unimp
  44:	0000                	unimp
  46:	0000                	unimp
  48:	0110                	addi	a2,sp,128
  4a:	0000                	unimp
  4c:	0000                	unimp
  4e:	0000                	unimp
  50:	0030                	addi	a2,sp,8
  52:	0000                	unimp
  54:	0000                	unimp
  56:	0000                	unimp
  58:	0e44                	addi	s1,sp,788
  5a:	4810                	lw	a2,16(s0)
  5c:	0281                	addi	t0,t0,0
  5e:	0488                	addi	a0,sp,576
  60:	0c44                	addi	s1,sp,532
  62:	0008                	0x8
  64:	c154                	sw	a3,4(a0)
  66:	c844                	sw	s1,20(s0)
  68:	020c                	addi	a1,sp,256
  6a:	4410                	lw	a2,8(s0)
  6c:	000e                	c.slli	zero,0x3
	...
