
my.elf:     file format elf64-littleriscv


Disassembly of section .text:

0000000000000000 <sort>:
   0:	fd010113          	addi	sp,sp,-48
   4:	02813423          	sd	s0,40(sp)
   8:	03010413          	addi	s0,sp,48
   c:	fca43c23          	sd	a0,-40(s0)
  10:	00058793          	mv	a5,a1
  14:	fcf42a23          	sw	a5,-44(s0)
  18:	fd442783          	lw	a5,-44(s0)
  1c:	fff7879b          	addiw	a5,a5,-1
  20:	fef42623          	sw	a5,-20(s0)
  24:	0cc0006f          	j	f0 <sort+0xf0>
  28:	fe042423          	sw	zero,-24(s0)
  2c:	0a40006f          	j	d0 <sort+0xd0>
  30:	fe842783          	lw	a5,-24(s0)
  34:	00279793          	slli	a5,a5,0x2
  38:	fd843703          	ld	a4,-40(s0)
  3c:	00f707b3          	add	a5,a4,a5
  40:	0007a683          	lw	a3,0(a5)
  44:	fe842783          	lw	a5,-24(s0)
  48:	00178793          	addi	a5,a5,1
  4c:	00279793          	slli	a5,a5,0x2
  50:	fd843703          	ld	a4,-40(s0)
  54:	00f707b3          	add	a5,a4,a5
  58:	0007a783          	lw	a5,0(a5)
  5c:	00068713          	mv	a4,a3
  60:	06e7d263          	bge	a5,a4,c4 <sort+0xc4>
  64:	fe842783          	lw	a5,-24(s0)
  68:	00279793          	slli	a5,a5,0x2
  6c:	fd843703          	ld	a4,-40(s0)
  70:	00f707b3          	add	a5,a4,a5
  74:	0007a783          	lw	a5,0(a5)
  78:	fef42223          	sw	a5,-28(s0)
  7c:	fe842783          	lw	a5,-24(s0)
  80:	00178793          	addi	a5,a5,1
  84:	00279793          	slli	a5,a5,0x2
  88:	fd843703          	ld	a4,-40(s0)
  8c:	00f70733          	add	a4,a4,a5
  90:	fe842783          	lw	a5,-24(s0)
  94:	00279793          	slli	a5,a5,0x2
  98:	fd843683          	ld	a3,-40(s0)
  9c:	00f687b3          	add	a5,a3,a5
  a0:	00072703          	lw	a4,0(a4)
  a4:	00e7a023          	sw	a4,0(a5)
  a8:	fe842783          	lw	a5,-24(s0)
  ac:	00178793          	addi	a5,a5,1
  b0:	00279793          	slli	a5,a5,0x2
  b4:	fd843703          	ld	a4,-40(s0)
  b8:	00f707b3          	add	a5,a4,a5
  bc:	fe442703          	lw	a4,-28(s0)
  c0:	00e7a023          	sw	a4,0(a5)
  c4:	fe842783          	lw	a5,-24(s0)
  c8:	0017879b          	addiw	a5,a5,1
  cc:	fef42423          	sw	a5,-24(s0)
  d0:	fe842703          	lw	a4,-24(s0)
  d4:	fec42783          	lw	a5,-20(s0)
  d8:	0007071b          	sext.w	a4,a4
  dc:	0007879b          	sext.w	a5,a5
  e0:	f4f748e3          	blt	a4,a5,30 <sort+0x30>
  e4:	fec42783          	lw	a5,-20(s0)
  e8:	fff7879b          	addiw	a5,a5,-1
  ec:	fef42623          	sw	a5,-20(s0)
  f0:	fec42783          	lw	a5,-20(s0)
  f4:	0007879b          	sext.w	a5,a5
  f8:	f2f048e3          	bgtz	a5,28 <sort+0x28>
  fc:	00000013          	nop
 100:	00000013          	nop
 104:	02813403          	ld	s0,40(sp)
 108:	03010113          	addi	sp,sp,48
 10c:	00008067          	ret

0000000000000110 <_start>:
 110:	ff010113          	addi	sp,sp,-16
 114:	00113423          	sd	ra,8(sp)
 118:	00813023          	sd	s0,0(sp)
 11c:	01010413          	addi	s0,sp,16
 120:	00500593          	li	a1,5
 124:	14000513          	li	a0,320
 128:	ed9ff0ef          	jal	ra,0 <sort>
 12c:	00000013          	nop
 130:	00813083          	ld	ra,8(sp)
 134:	00013403          	ld	s0,0(sp)
 138:	01010113          	addi	sp,sp,16
 13c:	00008067          	ret
